; Function Attrs: mustprogress uwtable
define void @_ZNK6casadi5Qrsqp9get_statsB5cxx11EPv(ptr dead_on_unwind noalias writable sret(%"class.std::map.28") align 8 %0, ptr noundef nonnull align 8 dereferenceable(2049) %1, ptr noundef %2) unnamed_addr #3 align 2 personality ptr @__gxx_personality_v0 {
  %4 = alloca %"class.casadi::GenericType", align 8
  %5 = alloca %"class.std::__cxx11::basic_string", align 8
  %6 = alloca %"class.std::allocator.0", align 1
  %7 = alloca %"class.casadi::GenericType", align 8
  %8 = alloca %"class.std::__cxx11::basic_string", align 8
  %9 = alloca %"class.std::allocator.0", align 1
  tail call void @_ZNK6casadi6Nlpsol9get_statsB5cxx11EPv(ptr dead_on_unwind writable sret(%"class.std::map.28") align 8 %0, ptr noundef nonnull align 8 dereferenceable(1928) %1, ptr noundef %2)
  %10 = getelementptr inbounds i8, ptr %2, i64 480
  %11 = load ptr, ptr %10, align 8
  invoke void @_ZN6casadi11GenericTypeC1EPKc(ptr noundef nonnull align 8 dereferenceable(8) %4, ptr noundef %11)
          to label %12 unwind label %28

12:                                               ; preds = %3
  call void @_ZNSaIcEC1Ev(ptr noundef nonnull align 1 dereferenceable(1) %6) #19
  %13 = invoke noundef ptr @_ZNSt7__cxx1112basic_stringIcSt11char_traitsIcESaIcEE13_M_local_dataEv(ptr noundef nonnull align 8 dereferenceable(32) %5)
          to label %.noexc unwind label %30

.noexc:                                           ; preds = %12
  invoke void @_ZNSt7__cxx1112basic_stringIcSt11char_traitsIcESaIcEE12_Alloc_hiderC1EPcRKS3_(ptr noundef nonnull align 8 dereferenceable(8) %5, ptr noundef %13, ptr noundef nonnull align 1 dereferenceable(1) %6)
          to label %.noexc14 unwind label %30

.noexc14:                                         ; preds = %.noexc
  invoke void @_ZNSt7__cxx1112basic_stringIcSt11char_traitsIcESaIcEE12_M_constructIPKcEEvT_S8_St20forward_iterator_tag(ptr noundef nonnull align 8 dereferenceable(32) %5, ptr noundef nonnull @.str.91, ptr noundef nonnull getelementptr inbounds ([14 x i8], ptr @.str.91, i64 0, i64 13))
          to label %_ZNSt7__cxx1112basic_stringIcSt11char_traitsIcESaIcEEC2IS3_EEPKcRKS3_.exit unwind label %14

14:                                               ; preds = %.noexc14
  %15 = landingpad { ptr, i32 }
          cleanup
  call void @_ZNSaIcED2Ev(ptr noundef nonnull align 1 dereferenceable(1) %5) #19
  br label %.body

_ZNSt7__cxx1112basic_stringIcSt11char_traitsIcESaIcEEC2IS3_EEPKcRKS3_.exit: ; preds = %.noexc14
  %16 = invoke noundef nonnull align 8 dereferenceable(8) ptr @_ZNSt3mapINSt7__cxx1112basic_stringIcSt11char_traitsIcESaIcEEEN6casadi11GenericTypeESt4lessIS5_ESaISt4pairIKS5_S7_EEEixEOS5_(ptr noundef nonnull align 8 dereferenceable(48) %0, ptr noundef nonnull align 8 dereferenceable(32) %5)
          to label %17 unwind label %32

17:                                               ; preds = %_ZNSt7__cxx1112basic_stringIcSt11char_traitsIcESaIcEEC2IS3_EEPKcRKS3_.exit
  %18 = invoke noundef nonnull align 8 dereferenceable(8) ptr @_ZN6casadi12SharedObjectaSERKS0_(ptr noundef nonnull align 8 dereferenceable(8) %16, ptr noundef nonnull align 8 dereferenceable(8) %4)
          to label %_ZN6casadi11GenericTypeaSEOS0_.exit unwind label %32

_ZN6casadi11GenericTypeaSEOS0_.exit:              ; preds = %17
  call void @_ZNSt7__cxx1112basic_stringIcSt11char_traitsIcESaIcEED1Ev(ptr noundef nonnull align 8 dereferenceable(32) %5) #19
  call void @_ZNSaIcED1Ev(ptr noundef nonnull align 1 dereferenceable(1) %6) #19
  call void @_ZN6casadi12SharedObjectD2Ev(ptr noundef nonnull align 8 dereferenceable(8) %4) #19
  %19 = getelementptr inbounds i8, ptr %2, i64 488
  %20 = load i32, ptr %19, align 8
  %21 = sext i32 %20 to i64
  invoke void @_ZN6casadi11GenericTypeC2Ex(ptr noundef nonnull align 8 dereferenceable(8) %7, i64 noundef %21)
          to label %_ZN6casadi11GenericTypeC2Ei.exit unwind label %28

_ZN6casadi11GenericTypeC2Ei.exit:                 ; preds = %_ZN6casadi11GenericTypeaSEOS0_.exit
  call void @_ZNSaIcEC1Ev(ptr noundef nonnull align 1 dereferenceable(1) %9) #19
  %22 = invoke noundef ptr @_ZNSt7__cxx1112basic_stringIcSt11char_traitsIcESaIcEE13_M_local_dataEv(ptr noundef nonnull align 8 dereferenceable(32) %8)
          to label %.noexc17 unwind label %34

.noexc17:                                         ; preds = %_ZN6casadi11GenericTypeC2Ei.exit
  invoke void @_ZNSt7__cxx1112basic_stringIcSt11char_traitsIcESaIcEE12_Alloc_hiderC1EPcRKS3_(ptr noundef nonnull align 8 dereferenceable(8) %8, ptr noundef %22, ptr noundef nonnull align 1 dereferenceable(1) %9)
          to label %.noexc18 unwind label %34

.noexc18:                                         ; preds = %.noexc17
  invoke void @_ZNSt7__cxx1112basic_stringIcSt11char_traitsIcESaIcEE12_M_constructIPKcEEvT_S8_St20forward_iterator_tag(ptr noundef nonnull align 8 dereferenceable(32) %8, ptr noundef nonnull @.str.92, ptr noundef nonnull getelementptr inbounds ([11 x i8], ptr @.str.92, i64 0, i64 10))
          to label %_ZNSt7__cxx1112basic_stringIcSt11char_traitsIcESaIcEEC2IS3_EEPKcRKS3_.exit21 unwind label %23

23:                                               ; preds = %.noexc18
  %24 = landingpad { ptr, i32 }
          cleanup
  call void @_ZNSaIcED2Ev(ptr noundef nonnull align 1 dereferenceable(1) %8) #19
  br label %.body19

_ZNSt7__cxx1112basic_stringIcSt11char_traitsIcESaIcEEC2IS3_EEPKcRKS3_.exit21: ; preds = %.noexc18
  %25 = invoke noundef nonnull align 8 dereferenceable(8) ptr @_ZNSt3mapINSt7__cxx1112basic_stringIcSt11char_traitsIcESaIcEEEN6casadi11GenericTypeESt4lessIS5_ESaISt4pairIKS5_S7_EEEixEOS5_(ptr noundef nonnull align 8 dereferenceable(48) %0, ptr noundef nonnull align 8 dereferenceable(32) %8)
          to label %26 unwind label %36

26:                                               ; preds = %_ZNSt7__cxx1112basic_stringIcSt11char_traitsIcESaIcEEC2IS3_EEPKcRKS3_.exit21
  %27 = invoke noundef nonnull align 8 dereferenceable(8) ptr @_ZN6casadi12SharedObjectaSERKS0_(ptr noundef nonnull align 8 dereferenceable(8) %25, ptr noundef nonnull align 8 dereferenceable(8) %7)
          to label %_ZN6casadi11GenericTypeaSEOS0_.exit23 unwind label %36

_ZN6casadi11GenericTypeaSEOS0_.exit23:            ; preds = %26
  call void @_ZNSt7__cxx1112basic_stringIcSt11char_traitsIcESaIcEED1Ev(ptr noundef nonnull align 8 dereferenceable(32) %8) #19
  call void @_ZNSaIcED1Ev(ptr noundef nonnull align 1 dereferenceable(1) %9) #19
  call void @_ZN6casadi12SharedObjectD2Ev(ptr noundef nonnull align 8 dereferenceable(8) %7) #19
  ret void

28:                                               ; preds = %_ZN6casadi11GenericTypeaSEOS0_.exit, %3
  %29 = landingpad { ptr, i32 }
          cleanup
  br label %38

30:                                               ; preds = %.noexc, %12
  %31 = landingpad { ptr, i32 }
          cleanup
  br label %.body

32:                                               ; preds = %17, %_ZNSt7__cxx1112basic_stringIcSt11char_traitsIcESaIcEEC2IS3_EEPKcRKS3_.exit
  %33 = landingpad { ptr, i32 }
          cleanup
  call void @_ZNSt7__cxx1112basic_stringIcSt11char_traitsIcESaIcEED1Ev(ptr noundef nonnull align 8 dereferenceable(32) %5) #19
  br label %.body

.body:                                            ; preds = %30, %14, %32
  %.pn = phi { ptr, i32 } [ %33, %32 ], [ %31, %30 ], [ %15, %14 ]
  call void @_ZNSaIcED1Ev(ptr noundef nonnull align 1 dereferenceable(1) %6) #19
  call void @_ZN6casadi12SharedObjectD2Ev(ptr noundef nonnull align 8 dereferenceable(8) %4) #19
  br label %38

34:                                               ; preds = %.noexc17, %_ZN6casadi11GenericTypeC2Ei.exit
  %35 = landingpad { ptr, i32 }
          cleanup
  br label %.body19

36:                                               ; preds = %26, %_ZNSt7__cxx1112basic_stringIcSt11char_traitsIcESaIcEEC2IS3_EEPKcRKS3_.exit21
  %37 = landingpad { ptr, i32 }
          cleanup
  call void @_ZNSt7__cxx1112basic_stringIcSt11char_traitsIcESaIcEED1Ev(ptr noundef nonnull align 8 dereferenceable(32) %8) #19
  br label %.body19

.body19:                                          ; preds = %34, %23, %36
  %.pn11 = phi { ptr, i32 } [ %37, %36 ], [ %35, %34 ], [ %24, %23 ]
  call void @_ZNSaIcED1Ev(ptr noundef nonnull align 1 dereferenceable(1) %9) #19
  call void @_ZN6casadi12SharedObjectD2Ev(ptr noundef nonnull align 8 dereferenceable(8) %7) #19
  br label %38

38:                                               ; preds = %.body19, %.body, %28
  %.pn11.pn = phi { ptr, i32 } [ %.pn11, %.body19 ], [ %29, %28 ], [ %.pn, %.body ]
  call void @_ZNSt3mapINSt7__cxx1112basic_stringIcSt11char_traitsIcESaIcEEEN6casadi11GenericTypeESt4lessIS5_ESaISt4pairIKS5_S7_EEED2Ev(ptr noundef nonnull align 8 dereferenceable(48) %0) #19
  resume { ptr, i32 } %.pn11.pn
}